target datalayout = "e-m:e-p270:32:32-p271:32:32-p272:64:64-i64:64-i128:128-f80:128-n8:16:32:64-S128"
target triple = "x86_64-pc-linux-gnu"

%struct.jpeg_decompress_struct = type { ptr, ptr, ptr, ptr, i32, i32, ptr, i32, i32, i32, i32, i32, i32, i32, double, i32, i32, i32, i32, i32, i32, i32, i32, i32, i32, i32, i32, i32, i32, i32, i32, i32, i32, ptr, i32, i32, i32, i32, i32, ptr, [4 x ptr], [4 x ptr], [4 x ptr], i32, ptr, i32, i32, [16 x i8], [16 x i8], [16 x i8], i32, i32, i8, i8, i8, i16, i16, i32, i8, i32, ptr, i32, i32, i32, i32, ptr, i32, [4 x ptr], i32, i32, i32, [10 x i32], i32, i32, i32, i32, i32, ptr, ptr, ptr, ptr, ptr, ptr, ptr, ptr, ptr, ptr, ptr }
%struct.tga_dest_struct = type { %struct.djpeg_dest_struct, ptr, i32 }
%struct.djpeg_dest_struct = type { ptr, ptr, ptr, ptr, ptr, ptr, ptr, ptr, i32 }

; Function Attrs: nounwind uwtable
define internal void @put_gray_rows(ptr noundef %0, ptr noundef %1, i32 noundef %2) #0 {
  %4 = alloca ptr, align 8
  %5 = alloca ptr, align 8
  %6 = alloca i32, align 4
  %7 = alloca ptr, align 8
  %8 = alloca ptr, align 8
  %9 = alloca ptr, align 8
  store ptr %0, ptr %4, align 8, !tbaa !4
  store ptr %1, ptr %5, align 8, !tbaa !55
  store i32 %2, ptr %6, align 4, !tbaa !61
  call void @llvm.lifetime.start.p0(i64 8, ptr %7) #6
  %10 = load ptr, ptr %5, align 8, !tbaa !55
  store ptr %10, ptr %7, align 8, !tbaa !42
  call void @llvm.lifetime.start.p0(i64 8, ptr %8) #6
  call void @llvm.lifetime.start.p0(i64 8, ptr %9) #6
  %11 = load ptr, ptr %7, align 8, !tbaa !42
  %12 = getelementptr inbounds nuw %struct.tga_dest_struct, ptr %11, i32 0, i32 0
  %13 = getelementptr inbounds nuw %struct.djpeg_dest_struct, ptr %12, i32 0, i32 5
  %14 = load ptr, ptr %13, align 8, !tbaa !53
  %15 = getelementptr inbounds ptr, ptr %14, i64 0
  %16 = load ptr, ptr %15, align 8, !tbaa !65
  store ptr %16, ptr %8, align 8, !tbaa !65
  %17 = load ptr, ptr %7, align 8, !tbaa !42
  %18 = getelementptr inbounds nuw %struct.tga_dest_struct, ptr %17, i32 0, i32 1
  %19 = load ptr, ptr %18, align 8, !tbaa !51
  store ptr %19, ptr %9, align 8, !tbaa !65
  %20 = load ptr, ptr %9, align 8, !tbaa !65
  %21 = load ptr, ptr %8, align 8, !tbaa !65
  %22 = load ptr, ptr %4, align 8, !tbaa !4
  %23 = getelementptr inbounds nuw %struct.jpeg_decompress_struct, ptr %22, i32 0, i32 27
  %24 = load i32, ptr %23, align 8, !tbaa !69
  %25 = zext i32 %24 to i64
  call void @llvm.memcpy.p0.p0.i64(ptr align 1 %20, ptr align 1 %21, i64 %25, i1 false)
  %26 = load ptr, ptr %7, align 8, !tbaa !42
  %27 = getelementptr inbounds nuw %struct.tga_dest_struct, ptr %26, i32 0, i32 1
  %28 = load ptr, ptr %27, align 8, !tbaa !51
  %29 = load ptr, ptr %7, align 8, !tbaa !42
  %30 = getelementptr inbounds nuw %struct.tga_dest_struct, ptr %29, i32 0, i32 2
  %31 = load i32, ptr %30, align 8, !tbaa !50
  %32 = zext i32 %31 to i64
  %33 = load ptr, ptr %7, align 8, !tbaa !42
  %34 = getelementptr inbounds nuw %struct.tga_dest_struct, ptr %33, i32 0, i32 0
  %35 = getelementptr inbounds nuw %struct.djpeg_dest_struct, ptr %34, i32 0, i32 4
  %36 = load ptr, ptr %35, align 8, !tbaa !62
  %37 = call i64 @fwrite(ptr noundef %28, i64 noundef 1, i64 noundef %32, ptr noundef %36)
  call void @llvm.lifetime.end.p0(i64 8, ptr %9) #6
  call void @llvm.lifetime.end.p0(i64 8, ptr %8) #6
  call void @llvm.lifetime.end.p0(i64 8, ptr %7) #6
  ret void
}