; Function Attrs: nofree nounwind uwtable
define internal void @put_gray_rows(ptr noundef readonly captures(none) %0, ptr noundef readonly captures(none) %1, i32 %2) #4 {
  %4 = getelementptr inbounds nuw i8, ptr %1, i64 40
  %5 = load ptr, ptr %4, align 8, !tbaa !50
  %6 = load ptr, ptr %5, align 8, !tbaa !61
  %7 = getelementptr inbounds nuw i8, ptr %1, i64 72
  %8 = load ptr, ptr %7, align 8, !tbaa !48
  %9 = getelementptr inbounds nuw i8, ptr %0, i64 136
  %10 = load i32, ptr %9, align 8, !tbaa !53
  %11 = zext i32 %10 to i64
  tail call void @llvm.memcpy.p0.p0.i64(ptr align 1 %8, ptr align 1 %6, i64 %11, i1 false)
  %12 = load ptr, ptr %7, align 8, !tbaa !48
  %13 = getelementptr inbounds nuw i8, ptr %1, i64 80
  %14 = load i32, ptr %13, align 8, !tbaa !47
  %15 = zext i32 %14 to i64
  %16 = getelementptr inbounds nuw i8, ptr %1, i64 32
  %17 = load ptr, ptr %16, align 8, !tbaa !59
  %18 = tail call i64 @fwrite(ptr noundef %12, i64 noundef 1, i64 noundef %15, ptr noundef %17)
  ret void
}